(lp0
S'L'
p1
aS'D'
p2
aS'A'
p3
aS'P'
p4
aS'S'
p5
aS'Q'
p6
aS'I'
p7
aS'E'
p8
aS'V'
p9
aS'K'
p10
ag2
ag9
aS'T'
p11
ag2
ag11
ag11
ag3
ag1
ag7
ag11
aS'W'
p12
aS'F'
p13
ag10
ag4
ag1
ag3
ag8
ag7
ag2
aS'G'
p14
ag7
ag8
ag1
ag11
aS'Y'
p15
ag14
ag7
ag10
ag2
ag9
ag4
ag14
ag2
aS'R'
p16
ag11
ag11
ag7
ag2
ag1
ag11
ag8
ag2
ag8
aS'N'
p17
ag6
ag15
ag5
ag7
ag14
ag17
ag1
ag10
ag4
ag2
ag11
ag8
ag15
ag8
ag9
ag5
ag1
ag7
ag5
ag16
ag16
ag14
ag2
aS'M'
p18
ag5
ag5
ag17
ag4
ag3
ag10
ag8
ag11
ag13
ag11
ag11
a.