(lp0
S'T'
p1
aS'F'
p2
aS'V'
p3
aS'A'
p4
aS'L'
p5
aS'Y'
p6
aS'D'
p7
ag6
aS'E'
p8
aS'S'
p9
aS'R'
p10
ag1
ag8
ag1
ag7
ag5
ag9
ag2
aS'K'
p11
ag11
aS'G'
p12
ag8
ag10
ag5
aS'Q'
p13
aS'I'
p14
ag3
aS'N'
p15
ag15
ag1
ag8
ag12
ag7
aS'W'
p16
ag16
ag5
ag4
aS'H'
p17
ag9
ag5
ag1
ag1
ag12
ag13
ag1
ag12
ag6
ag14
aS'P'
p18
ag9
ag15
ag6
ag3
ag4
ag18
ag9
a.