(lp0
S'M'
p1
aS'R'
p2
ag2
aS'Y'
p3
aS'E'
p4
aS'V'
p5
aS'N'
p6
aS'I'
p7
ag5
aS'L'
p8
ag6
aS'P'
p9
ag6
ag8
aS'D'
p10
aS'Q'
p11
aS'S'
p12
ag11
ag8
aS'A'
p13
ag8
ag4
aS'K'
p14
ag4
ag7
ag7
ag11
ag2
ag13
ag8
ag4
ag6
ag3
aS'G'
p15
ag13
ag2
ag5
ag4
ag14
ag5
ag4
ag4
ag8
ag15
ag8
ag2
ag2
ag8
ag13
ag3
ag9
ag7
ag13
ag14
ag10
ag9
ag11
ag15
ag3
aS'F'
p16
ag8
aS'W'
p17
ag3
ag11
ag5
ag4
ag1
ag9
ag4
ag10
ag2
ag5
ag6
ag10
ag8
ag13
ag2
ag4
ag8
ag2
ag7
ag2
ag10
ag6
ag5
ag2
ag2
ag5
ag1
ag5
ag5
ag14
ag12
ag11
ag4
ag9
ag16
a.