(lp0
S'H'
p1
ag1
aS'S'
p2
aS'G'
p3
aS'E'
p4
ag1
aS'F'
p5
ag4
ag3
ag4
aS'K'
p6
aS'V'
p7
ag5
aS'R'
p8
ag7
aS'N'
p9
ag7
ag4
aS'D'
p10
ag4
ag9
ag10
aS'I'
p11
ag2
ag4
aS'L'
p12
ag1
ag4
ag12
aS'A'
p13
ag2
aS'T'
p14
ag8
aS'Q'
p15
ag11
ag10
ag5
aS'W'
p16
ag6
aS'P'
p17
ag10
ag2
ag7
ag14
ag15
ag11
ag6
ag17
ag1
ag2
ag14
ag7
ag10
ag5
ag8
ag7
ag6
ag13
ag4
ag10
ag11
ag12
ag13
ag7
ag4
ag10
ag5
ag12
ag4
ag15
ag9
ag4
ag12
ag15
aS'Y'
p18
ag4
ag7
ag12
ag11
ag9
ag9
a.