(lp0
S'M'
p1
aS'A'
p2
aS'T'
p3
aS'V'
p4
aS'K'
p5
aS'F'
p6
ag5
aS'Y'
p7
ag5
aS'G'
p8
aS'E'
p9
ag9
ag5
aS'Q'
p10
ag4
aS'D'
p11
aS'I'
p12
aS'S'
p13
ag5
ag12
ag5
ag5
ag4
aS'W'
p14
aS'R'
p15
ag4
ag8
ag5
ag1
ag12
ag13
ag6
ag3
ag7
ag11
ag9
ag8
ag8
ag8
ag5
ag3
ag8
ag15
ag8
ag2
ag4
ag13
ag9
ag5
ag11
ag2
aS'P'
p16
ag5
ag9
aS'L'
p17
ag17
ag10
ag1
ag17
ag2
ag5
ag10
ag5
ag5
a.