(lp0
S'M'
p1
aS'E'
p2
aS'L'
p3
aS'K'
p4
aS'H'
p5
aS'S'
p6
aS'I'
p7
ag6
aS'D'
p8
aS'Y'
p9
aS'T'
p10
ag2
aS'A'
p11
ag2
aS'F'
p12
ag3
aS'Q'
p13
ag3
aS'V'
p14
ag10
ag10
ag7
aS'C'
p15
aS'N'
p16
ag11
ag8
ag10
ag6
ag6
ag2
ag2
ag2
ag3
ag14
ag4
ag3
ag14
ag10
ag5
ag12
ag2
ag2
ag1
ag10
ag2
ag5
aS'P'
p17
ag6
aS'G'
p18
ag6
ag8
ag3
ag7
ag9
ag9
ag17
ag4
ag2
ag18
ag8
ag8
ag8
ag6
ag17
ag6
ag18
ag7
ag14
ag16
ag10
ag14
ag4
ag13
aS'W'
p19
aS'R'
p20
ag11
ag11
ag16
ag18
ag4
ag6
ag18
ag12
ag4
ag13
ag18
a.