(lp0
S'M'
p1
aS'K'
p2
aS'V'
p3
aS'I'
p4
aS'F'
p5
aS'L'
p6
ag2
aS'D'
p7
ag3
ag2
aS'G'
p8
ag2
ag8
ag2
ag2
ag8
aS'E'
p9
ag4
ag2
aS'N'
p10
ag3
aS'A'
p11
ag7
ag8
aS'Y'
p12
ag11
ag10
ag10
ag5
ag6
ag5
ag2
aS'Q'
p13
ag8
ag6
ag11
ag4
ag9
ag11
aS'T'
p14
aS'P'
p15
ag11
ag10
ag6
ag2
ag11
ag6
ag9
ag11
ag13
ag2
ag13
ag2
ag9
ag13
aS'R'
p16
ag13
ag11
ag11
ag9
ag9
ag6
ag11
ag10
ag11
ag2
ag2
ag6
ag2
ag9
ag13
ag6
ag9
ag2
ag6
ag14
ag3
ag14
ag4
ag15
ag11
ag2
ag11
ag8
ag9
ag8
ag8
ag16
ag6
ag5
ag8
aS'S'
p17
ag4
ag14
ag17
ag2
ag13
ag4
ag11
ag9
ag17
ag6
ag13
ag11
ag13
aS'H'
p18
ag8
ag6
ag2
ag6
ag7
ag2
ag16
ag2
ag4
ag9
ag6
ag11
ag7
ag11
ag4
ag16
ag11
ag6
ag8
ag12
ag14
ag10
ag3
ag15
ag3
ag2
ag6
ag18
ag15
ag9
ag3
ag14
ag11
ag14
ag6
ag2
ag3
ag18
ag3
ag14
ag9
ag13
ag2
a.