(lp0
S'G'
p1
aS'V'
p2
aS'Q'
p3
ag2
aS'E'
p4
aS'T'
p5
aS'I'
p6
aS'S'
p7
aS'P'
p8
ag1
aS'D'
p9
ag1
aS'R'
p10
ag5
aS'F'
p11
ag8
aS'K'
p12
ag10
ag1
ag3
ag5
aS'C'
p13
ag2
ag2
aS'H'
p14
aS'Y'
p15
ag5
ag1
aS'M'
p16
aS'L'
p17
ag4
ag9
ag1
ag12
ag12
ag11
ag9
ag7
ag7
ag10
ag9
ag10
aS'N'
p18
ag12
ag8
ag11
ag12
ag11
ag16
ag17
ag1
ag12
ag3
ag4
ag2
ag6
ag10
ag1
aS'W'
p19
ag4
ag4
ag1
ag2
aS'A'
p20
ag3
ag16
ag7
ag2
ag1
ag3
ag10
ag20
ag12
ag17
ag5
ag6
ag7
ag8
ag9
ag15
ag20
ag15
ag1
ag20
ag5
ag1
ag14
ag8
ag1
ag6
ag6
ag8
ag8
ag14
ag20
ag5
ag17
ag2
ag11
ag9
ag2
ag4
ag17
ag17
ag12
ag17
ag4
a.