(lp0
S'A'
p1
aS'E'
p2
aS'G'
p3
aS'D'
p4
aS'T'
p5
aS'L'
p6
aS'I'
p7
aS'S'
p8
aS'V'
p9
ag4
aS'Y'
p10
ag2
ag7
aS'F'
p11
ag3
aS'K'
p12
ag9
aS'Q'
p13
ag3
ag9
ag11
ag11
aS'R'
p14
ag12
ag10
ag5
ag13
ag1
ag2
ag3
ag12
ag12
ag6
ag3
ag6
ag9
ag3
aS'W'
p15
ag9
ag13
aS'N'
p16
ag5
ag4
ag13
ag3
ag5
ag9
ag13
ag3
ag13
ag6
ag13
ag3
aS'P'
p17
ag1
ag8
ag12
ag9
ag14
aS'H'
p18
aS'M'
p19
ag13
ag2
ag15
ag6
ag2
ag5
ag12
ag3
ag8
ag17
ag12
ag8
ag18
ag7
ag4
ag14
ag1
ag8
ag11
ag18
ag16
ag2
ag12
ag9
ag7
ag9
ag12
ag6
ag4
ag10
ag5
ag4
ag11
ag13
ag7
ag9
ag12
a.