(lp0
S'L'
p1
aS'I'
p2
aS'E'
p3
aS'V'
p4
ag3
aS'K'
p5
aS'P'
p6
ag1
aS'Y'
p7
aS'G'
p8
ag4
ag3
ag4
aS'F'
p9
ag4
ag8
ag3
aS'T'
p10
aS'A'
p11
aS'H'
p12
ag9
ag3
ag2
ag3
ag1
aS'S'
p13
ag3
ag6
aS'D'
p14
ag4
ag12
ag8
aS'Q'
p15
aS'W'
p16
ag5
ag1
ag5
ag8
ag15
ag6
ag1
ag10
ag11
ag13
ag6
ag14
aS'C'
p17
ag3
ag2
ag2
ag3
ag14
ag8
ag5
ag5
ag12
ag2
ag1
ag2
ag1
ag12
aS'N'
p18
ag17
ag15
ag1
ag8
aS'M'
p19
ag10
ag8
ag3
ag4
ag13
ag9
ag15
ag11
ag11
ag18
ag11
ag5
ag13
ag11
ag11
ag18
ag1
ag5
ag4
ag5
ag3
ag1
a.