(lp0
S'S'
p1
aS'T'
p2
aS'A'
p3
aS'R'
p4
aS'P'
p5
aS'L'
p6
aS'K'
p7
ag1
aS'V'
p8
aS'D'
p9
aS'Y'
p10
aS'E'
p11
ag8
aS'F'
p12
aS'G'
p13
ag4
ag8
aS'Q'
p14
ag13
ag8
aS'C'
p15
ag12
ag4
aS'M'
p16
ag10
ag3
ag11
ag9
ag11
ag3
ag4
ag7
aS'I'
p17
ag13
ag8
ag8
ag13
aS'W'
p18
ag8
ag7
aS'N'
p19
ag2
ag1
ag7
ag13
ag2
ag8
ag2
ag13
ag14
ag8
ag14
ag13
ag5
ag11
ag11
ag7
ag8
ag19
ag1
ag16
ag7
ag1
ag18
ag6
ag1
ag7
ag8
ag13
ag1
ag5
ag1
ag1
ag4
ag17
ag9
ag4
ag2
ag19
ag12
ag1
ag19
ag11
ag7
ag2
ag17
ag1
ag7
ag6
ag11
ag10
ag1
ag19
ag12
ag1
ag8
ag4
ag10
a.