(lp0
S'V'
p1
aS'I'
p2
aS'A'
p3
aS'M'
p4
aS'P'
p5
aS'S'
p6
ag1
aS'R'
p7
aS'K'
p8
aS'Y'
p9
ag3
ag7
aS'E'
p10
ag8
aS'G'
p11
ag1
aS'D'
p12
ag2
ag7
aS'L'
p13
ag1
aS'Q'
p14
ag11
aS'T'
p15
ag11
ag8
aS'N'
p16
ag11
ag7
ag1
ag13
ag8
ag10
ag12
ag2
ag12
ag3
aS'F'
p17
ag13
ag3
ag11
ag11
ag3
a.