(lp0
S'E'
p1
aS'G'
p2
aS'Y'
p3
aS'Q'
p4
ag3
aS'R'
p5
aS'A'
p6
aS'L'
p7
ag3
aS'D'
p8
ag3
aS'K'
p9
ag9
ag1
ag5
ag1
ag1
ag8
aS'I'
p10
ag8
ag7
aS'H'
p11
ag7
ag2
ag8
ag10
ag7
aS'T'
p12
aS'V'
p13
aS'N'
p14
ag9
ag2
aS'S'
p15
ag7
ag13
ag6
ag7
ag2
aS'F'
p16
ag15
ag8
ag2
ag4
ag1
ag6
ag5
aS'P'
p17
ag1
ag1
ag10
ag2
aS'W'
p18
ag7
ag14
ag2
ag3
ag14
ag1
ag12
ag12
ag2
ag1
ag5
ag2
ag8
ag16
ag17
ag2
ag12
ag3
ag13
ag1
ag3
ag10
ag2
ag5
a.