(lp0
S'M'
p1
aS'V'
p2
aS'T'
p3
aS'F'
p4
aS'H'
p5
ag3
aS'N'
p6
ag5
aS'G'
p7
aS'D'
p8
aS'I'
p9
ag2
ag9
aS'K'
p10
ag3
ag4
ag8
ag8
ag10
aS'A'
p11
aS'P'
p12
aS'E'
p13
ag3
ag2
ag10
ag6
ag4
aS'L'
p14
ag8
aS'Y'
p15
aS'C'
p16
aS'R'
p17
ag13
ag7
ag4
ag15
ag6
ag6
ag3
ag9
ag4
ag5
ag17
ag2
ag9
ag6
ag7
ag4
ag1
ag9
aS'Q'
p18
ag7
ag7
ag7
ag4
ag13
ag12
ag7
ag1
ag10
ag18
ag10
ag11
ag3
ag10
ag13
ag12
ag9
ag10
ag6
ag13
ag11
ag6
ag6
ag7
ag14
ag10
ag6
ag3
ag17
ag7
ag3
ag14
ag11
ag1
ag11
ag17
ag3
ag18
ag11
ag12
ag5
aS'S'
p19
ag11
ag3
ag11
ag18
ag4
ag4
ag9
ag6
ag2
ag2
ag8
ag6
ag8
ag4
ag14
ag6
ag4
ag19
ag7
ag13
ag19
ag14
ag18
ag7
aS'W'
p20
ag7
ag15
ag16
ag2
ag4
ag11
ag13
ag2
ag2
ag8
ag7
ag1
ag8
ag13
ag2
ag8
ag10
ag9
ag10
ag7
ag2
ag11
ag3
ag7
ag17
ag19
ag7
ag1
ag5
ag18
ag8
ag2
ag12
ag10
ag13
ag8
ag2
ag9
ag9
ag13
ag19
ag2
ag3
ag2
ag19
ag13
a.