(lp0
S'M'
p1
aS'Q'
p2
aS'I'
p3
aS'F'
p4
aS'V'
p5
aS'K'
p6
aS'T'
p7
aS'L'
p8
ag7
aS'G'
p9
ag6
ag7
ag3
ag7
ag8
aS'E'
p10
ag5
ag10
aS'P'
p11
aS'S'
p12
aS'D'
p13
ag7
ag3
ag10
aS'N'
p14
ag5
ag6
aS'A'
p15
ag6
ag3
ag2
ag13
ag6
ag10
ag9
ag3
ag11
ag11
ag13
ag2
ag2
aS'R'
p16
ag8
ag3
ag4
ag15
ag9
ag6
ag2
ag8
ag10
ag13
ag9
ag16
ag7
ag8
ag12
ag13
aS'Y'
p17
ag14
ag3
ag2
ag6
ag10
ag12
ag7
ag8
aS'H'
p18
ag8
ag5
ag8
ag16
ag8
ag16
ag9
ag9
a.