(lp0
S'T'
p1
aS'A'
p2
aS'D'
p3
aS'N'
p4
aS'K'
p5
aS'F'
p6
ag4
ag5
aS'E'
p7
aS'Q'
p8
ag8
ag4
ag2
ag6
aS'Y'
p9
ag7
aS'I'
p10
aS'L'
p11
aS'H'
p12
ag11
aS'P'
p13
ag4
ag11
ag4
ag7
ag7
ag8
aS'R'
p14
ag4
aS'G'
p15
ag6
ag10
ag8
aS'S'
p16
ag11
ag5
ag3
ag3
ag13
ag16
ag8
ag16
ag2
ag4
ag11
ag11
ag2
ag7
ag2
ag5
ag5
ag11
ag4
ag3
ag2
ag8
ag2
ag13
ag5
ag2
a.