(lp0
S'M'
p1
aS'Q'
p2
aS'R'
p3
aS'G'
p4
aS'K'
p5
aS'V'
p6
ag5
aS'W'
p7
aS'F'
p8
aS'N'
p9
ag9
aS'E'
p10
ag5
ag4
aS'Y'
p11
ag4
ag8
aS'I'
p12
ag10
ag6
ag10
ag4
ag4
aS'S'
p13
aS'D'
p14
ag6
ag8
ag6
aS'H'
p15
ag8
aS'T'
p16
aS'A'
p17
ag12
ag2
ag4
ag10
ag4
ag8
ag5
ag16
aS'L'
p18
ag10
ag10
ag4
ag2
ag10
ag6
ag13
ag8
ag10
ag12
ag6
ag2
ag4
ag9
ag3
ag4
aS'P'
p19
ag2
ag17
ag17
ag9
ag6
ag6
ag5
ag18
a.