(lp0
S'M'
p1
aS'R'
p2
aS'G'
p3
aS'K'
p4
aS'V'
p5
ag4
aS'W'
p6
aS'F'
p7
aS'D'
p8
aS'S'
p9
ag4
ag4
ag3
aS'Y'
p10
ag3
ag7
aS'I'
p11
aS'T'
p12
ag4
ag8
aS'E'
p13
ag3
ag3
ag8
ag5
ag7
ag5
aS'H'
p14
ag6
ag9
aS'A'
p15
ag11
ag13
ag1
ag13
ag3
ag7
ag4
ag12
aS'L'
p16
ag4
ag13
ag3
aS'Q'
p17
ag5
ag5
ag13
ag7
ag13
ag11
ag17
ag13
ag3
ag4
ag4
ag3
aS'P'
p18
ag17
ag15
ag15
ag14
ag5
ag4
ag5
ag5
ag13
a.