(lp0
S'D'
p1
aS'T'
p2
ag2
aS'V'
p3
aS'S'
p4
aS'E'
p5
aS'P'
p6
aS'A'
p7
ag6
ag4
aS'C'
p8
ag3
ag2
aS'L'
p9
aS'Y'
p10
aS'Q'
p11
ag4
aS'W'
p12
aS'R'
p13
ag10
ag4
ag11
ag7
ag1
aS'N'
p14
aS'G'
p15
ag8
ag7
ag5
ag2
ag3
ag2
ag3
aS'K'
p16
ag3
ag3
ag10
ag5
ag1
ag1
ag2
ag5
ag15
ag9
ag8
ag10
ag7
ag3
ag7
ag6
ag15
ag11
aS'I'
p17
ag2
ag2
ag3
ag15
ag1
ag15
ag10
ag17
ag15
ag4
aS'H'
p18
ag15
ag18
ag7
ag13
ag10
ag9
ag7
ag13
ag8
ag9
a.