(lp0
S'H'
p1
ag1
aS'A'
p2
aS'M'
p3
aS'E'
p4
ag4
aS'V'
p5
aS'T'
p6
aS'I'
p7
aS'K'
p8
ag2
aS'N'
p9
aS'L'
p10
ag7
aS'F'
p11
ag2
ag9
aS'G'
p12
aS'S'
p13
ag6
aS'Q'
p14
ag6
ag2
ag4
ag11
ag8
ag12
ag6
ag11
ag4
ag8
ag2
ag6
ag13
ag4
ag2
aS'Y'
p15
ag2
ag15
ag2
aS'D'
p16
ag6
ag10
ag8
ag8
ag16
ag9
ag12
ag4
aS'W'
p17
ag6
ag5
ag16
ag5
ag2
ag16
ag8
ag12
ag15
ag6
ag10
ag9
ag7
ag8
ag11
ag2
ag12
a.