(lp0
S'S'
p1
aS'Q'
p2
aS'A'
p3
aS'E'
p4
aS'F'
p5
aS'D'
p6
aS'K'
p7
ag3
ag3
ag4
ag4
aS'V'
p8
ag7
aS'H'
p9
aS'L'
p10
ag7
aS'T'
p11
ag7
aS'P'
p12
ag3
ag6
ag4
ag4
aS'M'
p13
ag10
ag5
aS'I'
p14
aS'Y'
p15
ag1
ag9
ag15
ag7
ag2
ag3
ag11
ag8
aS'G'
p16
ag6
ag14
aS'N'
p17
ag11
ag4
aS'R'
p18
ag12
ag16
ag13
ag10
ag6
ag5
ag7
ag16
ag7
ag3
ag7
aS'W'
p19
ag6
ag3
ag19
ag17
ag4
ag10
ag7
ag16
ag11
ag1
ag7
ag4
ag6
ag3
ag13
ag7
ag3
ag15
ag14
ag6
ag7
ag8
ag4
ag4
ag10
ag7
ag7
ag7
ag15
ag16
ag14
a.