(lp0
S'K'
p1
aS'E'
p2
aS'L'
p3
aS'V'
p4
ag3
aS'A'
p5
ag3
aS'Y'
p6
aS'D'
p7
ag6
aS'Q'
p8
ag2
ag1
aS'S'
p9
aS'P'
p10
aS'R'
p11
ag2
ag4
aS'T'
p12
aS'M'
p13
ag1
ag1
aS'G'
p14
ag7
aS'I'
p15
ag3
ag12
ag3
ag3
aS'N'
p16
ag9
ag12
ag16
ag1
ag7
aS'W'
p17
ag17
ag1
ag4
ag2
ag4
ag16
ag7
ag11
ag8
ag14
aS'F'
p18
ag4
ag10
ag5
ag5
ag6
ag4
ag1
ag1
ag3
ag7
a.