(lp0
S'A'
p1
aS'V'
p2
aS'P'
p3
aS'E'
p4
aS'T'
p5
aS'R'
p6
ag3
aS'N'
p7
aS'H'
p8
ag5
aS'I'
p9
aS'Y'
p10
ag9
ag7
ag7
aS'L'
p11
ag7
ag4
aS'K'
p12
ag9
ag12
ag12
aS'D'
p13
ag4
ag11
ag12
ag12
aS'S'
p14
ag11
ag8
ag1
ag9
aS'F'
p15
ag14
ag6
ag15
aS'G'
p16
aS'Q'
p17
ag9
ag11
ag13
ag9
ag11
ag2
ag14
ag6
ag14
ag11
ag12
aS'M'
p18
ag6
ag16
ag17
ag1
ag15
ag2
ag9
ag15
ag12
ag4
ag2
ag14
ag14
ag1
ag5
ag7
ag1
ag11
ag6
ag14
ag18
ag17
ag16
ag15
ag3
ag15
ag10
ag13
ag12
ag3
ag18
ag6
ag9
ag17
ag10
ag1
ag12
ag5
ag13
ag14
ag13
ag9
ag9
ag1
ag12
ag18
a.