(lp0
S'A'
p1
aS'I'
p2
aS'E'
p3
aS'T'
p4
ag3
ag4
aS'L'
p5
aS'V'
p6
ag6
aS'G'
p7
ag1
ag7
aS'P'
p8
ag7
ag7
aS'Y'
p9
ag6
ag1
ag1
ag2
aS'R'
p10
ag1
ag1
aS'Q'
p11
ag5
ag7
ag11
aS'K'
p12
ag6
ag4
ag2
ag6
ag3
ag12
ag7
aS'N'
p13
ag5
ag7
ag7
ag6
aS'C'
p14
ag5
ag13
ag6
ag7
ag14
ag2
ag8
aS'S'
p15
ag12
ag1
ag5
ag2
ag15
ag1
ag15
aS'H'
p16
ag10
ag9
ag3
ag11
ag1
ag12
ag16
ag15
ag3
ag3
aS'M'
p17
ag7
ag2
ag12
ag1
ag3
ag13
ag6
ag4
ag2
aS'D'
p18
aS'F'
p19
ag1
ag12
ag6
ag11
ag3
aS'W'
p20
ag12
ag1
ag15
ag6
ag6
ag12
ag12
ag5
ag4
ag7
ag7
ag6
ag3
ag7
ag5
ag5
ag12
ag7
ag13
ag12
ag6
ag3
ag2
ag6
ag12
ag7
ag3
ag1
ag9
ag19
ag6
ag18
ag1
ag13
ag4
ag6
ag10
ag6
ag6
ag13
ag7
ag18
ag15
ag1
ag11
ag4
ag9
ag4
ag19
ag12
ag13
ag1
ag2
ag2
ag1
ag4
ag7
ag15
ag10
ag8
ag2
ag3
ag5
ag8
ag13
ag19
ag12
ag19
ag15
ag13
ag10
ag2
ag5
ag18
ag15
ag4
ag7
ag1
ag5
ag13
ag5
ag7
ag3
ag6
ag8
ag12
ag15
ag5
ag6
ag6
ag2
ag7
ag7
ag7
ag9
ag2
ag7
ag2
ag3
ag5
ag7
ag4
ag1
ag9
ag1
ag13
ag19
ag7
ag4
ag12
ag6
ag4
ag2
ag5
ag3
ag7
ag1
ag7
ag3
ag2
ag5
ag15
ag7
ag19
ag3
ag12
ag11
ag17
ag1
ag1
ag2
ag2
ag12
ag12
ag10
ag5
ag12
ag12
ag12
ag7
ag6
ag3
ag6
ag6
ag4
ag13
ag1
ag5
ag1
ag12
ag7
ag1
ag3
ag3
ag10
ag3
ag18
ag7
ag6
ag4
ag6
ag4
ag9
ag3
ag1
ag13
ag7
ag3
ag4
ag12
ag4
ag2
ag18
ag1
ag18
ag9
ag6
ag5
ag6
ag4
ag6
ag7
ag10
ag10
ag8
ag13
ag4
ag18
ag3
ag5
ag7
ag5
ag3
ag11
ag2
ag7
ag2
ag12
ag17
ag4
ag13
ag10
ag7
ag5
ag2
ag3
ag6
ag18
ag11
ag11
ag14
ag10
ag4
ag15
ag6
ag8
ag13
ag2
ag19
ag1
ag2
ag7
ag18
ag2
ag6
ag8
ag7
ag8
ag1
ag5
ag1
ag16
ag12
ag1
ag15
ag9
ag3
ag7
ag12
ag6
ag1
ag1
ag3
ag1
ag2
ag1
ag7
ag16
ag8
ag15
ag1
ag6
ag18
ag9
ag6
ag1
ag2
ag8
ag1
ag6
ag6
ag19
ag15
ag18
ag8
ag3
ag14
ag1
ag15
ag6
ag7
ag9
ag19
ag3
ag11
ag11
ag1
ag12
ag18
ag3
ag7
ag2
ag18
ag6
ag2
ag1
ag1
ag12
ag19
ag8
ag19
ag1
ag1
ag13
ag7
ag10
ag1
ag5
ag1
ag5
ag13
ag18
ag4
ag18
ag7
ag19
ag5
ag12
ag5
ag6
ag6
ag10
ag12
ag3
ag18
ag7
ag6
ag2
ag2
ag7
ag1
ag11
ag2
ag2
ag7
ag8
ag13
ag1
ag15
ag18
ag17
ag2
ag1
ag3
ag5
ag7
ag5
ag1
ag2
ag3
ag1
ag7
ag17
ag4
ag1
ag3
ag18
ag2
ag1
ag5
ag4
ag2
ag16
ag1
ag16
ag8
ag4
ag5
ag7
ag3
ag2
ag1
ag17
ag3
ag1
ag1
ag3
ag6
ag1
ag5
a.