(lp0
S'V'
p1
aS'E'
p2
aS'L'
p3
aS'S'
p4
aS'K'
p5
ag5
ag1
aS'T'
p6
aS'G'
p7
ag5
ag3
aS'D'
p8
ag5
ag6
ag6
aS'P'
p9
ag7
aS'I'
p10
aS'Q'
p11
ag10
aS'W'
p12
aS'R'
p13
ag10
ag2
aS'N'
p14
aS'M'
p15
ag2
ag15
ag1
ag9
ag1
ag9
ag6
ag5
ag4
aS'Y'
p16
ag7
ag14
aS'F'
p17
ag16
ag2
ag7
ag8
aS'C'
p18
ag16
ag1
ag3
ag3
ag4
ag6
ag13
ag5
ag6
ag7
ag4
ag7
ag17
ag4
ag16
ag14
ag10
aS'H'
p19
ag16
ag12
ag3
ag7
ag5
ag14
ag4
ag4
ag11
ag8
ag2
ag11
ag7
aS'A'
p20
ag20
ag20
ag10
ag16
ag6
ag6
ag11
ag15
ag8
ag2
ag16
ag3
ag7
ag4
ag1
ag20
ag1
ag11
ag19
ag13
ag2
ag1
ag11
ag7
ag19
ag2
ag4
ag2
ag6
ag17
ag13
ag20
ag16
ag17
ag5
ag11
ag7
ag3
ag10
ag16
ag5
ag11
ag7
ag7
ag1
ag20
ag4
ag7
ag15
ag5
a.