(lp0
S'M'
p1
aS'K'
p2
aS'T'
p3
aS'E'
p4
aS'W'
p5
aS'P'
p6
ag4
aS'L'
p7
aS'V'
p8
aS'G'
p9
ag2
aS'S'
p10
ag8
ag4
ag4
aS'A'
p11
ag2
ag2
ag8
aS'I'
p12
ag7
aS'Q'
p13
aS'D'
p14
ag2
ag6
ag4
ag11
ag13
ag12
ag12
ag8
ag7
ag6
ag8
ag9
ag3
ag12
ag8
ag3
ag1
ag4
aS'Y'
p15
aS'R'
p16
ag12
ag14
ag16
ag8
ag16
ag7
aS'F'
p17
ag8
ag14
ag2
ag7
ag14
aS'N'
p18
ag8
ag11
ag4
ag8
ag6
ag16
ag8
ag9
a.