(lp0
S'K'
p1
aS'L'
p2
aS'P'
p3
ag3
aS'G'
p4
aS'W'
p5
aS'E'
p6
ag1
aS'R'
p7
aS'M'
p8
aS'S'
p9
ag7
ag9
ag9
ag4
ag7
aS'V'
p10
aS'Y'
p11
ag11
aS'F'
p12
aS'N'
p13
aS'H'
p14
aS'I'
p15
aS'T'
p16
ag13
aS'A'
p17
ag9
aS'Q'
p18
ag5
ag6
ag7
ag3
ag9
ag4
ag4
ag1
ag13
ag4
ag18
ag4
ag6
ag3
ag17
ag7
ag10
ag7
aS'C'
p19
ag9
ag14
ag2
ag2
ag10
ag1
ag14
ag9
ag18
ag9
ag7
ag7
ag3
ag9
ag9
ag5
ag7
ag18
ag6
ag1
ag15
ag16
ag7
ag16
ag1
ag6
ag6
ag17
ag2
ag6
ag2
ag15
ag13
ag4
ag11
ag15
ag18
ag1
ag15
ag1
ag9
ag4
ag6
ag6
aS'D'
p20
ag12
ag6
ag9
ag2
ag17
ag9
ag18
ag12
ag9
ag20
ag19
ag9
ag9
ag17
ag1
ag17
ag7
ag4
ag20
ag2
ag4
ag17
ag12
ag9
ag7
ag4
ag18
ag8
ag18
ag1
ag3
ag12
ag6
ag20
ag17
ag9
ag12
ag17
ag2
ag7
ag16
ag4
ag6
ag8
ag9
ag4
ag3
ag10
ag12
ag16
ag20
ag9
ag4
ag15
ag14
ag15
ag15
ag2
ag7
ag16
ag6
ag17
ag3
a.