(lp0
S'E'
p1
aS'N'
p2
aS'K'
p3
ag1
ag1
aS'T'
p4
aS'P'
p5
ag1
ag4
ag5
ag1
ag4
aS'D'
p6
aS'S'
p7
ag1
ag1
ag1
aS'V'
p8
ag4
aS'I'
p9
ag3
aS'A'
p10
ag2
aS'L'
p11
ag9
aS'F'
p12
ag10
ag2
aS'G'
p13
ag7
ag4
aS'Q'
p14
ag4
ag10
ag1
ag12
ag3
ag13
ag4
ag12
ag1
ag3
ag10
ag4
ag7
ag1
ag10
aS'Y'
p15
ag10
ag15
ag10
ag6
ag4
ag11
ag3
ag3
ag6
ag2
ag13
ag1
ag15
ag4
ag8
ag6
ag8
ag10
ag6
ag3
ag13
ag15
ag4
ag11
ag2
ag9
ag3
ag12
ag10
ag13
a.