(lp0
S'A'
p1
aS'D'
p2
aS'L'
p3
aS'E'
p4
ag2
aS'N'
p5
aS'M'
p6
ag4
aS'T'
p7
ag3
ag5
ag2
ag5
ag3
aS'K'
p8
aS'V'
p9
aS'I'
p10
ag4
ag8
ag1
ag2
ag5
ag1
ag1
aS'Q'
p11
ag9
ag8
ag2
ag1
ag3
ag7
ag8
ag6
aS'R'
p12
ag1
ag1
ag1
ag3
ag2
ag1
ag11
ag8
ag1
ag7
aS'P'
p13
ag13
ag8
ag3
ag4
ag2
ag8
aS'S'
p14
ag13
ag2
ag14
ag13
ag4
ag6
ag8
ag2
aS'F'
p15
ag12
aS'H'
p16
aS'G'
p17
ag15
ag2
ag10
ag3
ag9
ag17
ag11
ag10
ag2
ag2
ag1
ag3
ag8
ag3
ag1
ag5
ag4
ag17
ag8
ag9
ag8
ag4
ag1
ag11
ag1
ag1
ag1
ag4
ag11
ag3
ag8
ag7
ag7
ag12
ag5
ag1
aS'Y'
p18
ag16
ag11
ag8
ag18
ag12
a.