(lp0
S'M'
p1
aS'K'
p2
aS'T'
p3
aS'E'
p4
aS'W'
p5
aS'P'
p6
ag4
aS'L'
p7
aS'V'
p8
aS'G'
p9
ag2
aS'S'
p10
ag8
ag4
ag4
aS'A'
p11
ag2
ag2
ag8
aS'I'
p12
ag7
aS'Q'
p13
aS'D'
p14
ag2
ag6
ag4
ag11
ag13
ag12
ag12
ag8
ag7
ag4
ag2
ag13
ag11
ag8
ag14
aS'N'
p15
ag11
aS'Y'
p16
ag11
ag4
ag16
aS'R'
p17
ag12
ag14
ag17
ag8
ag17
ag7
ag11
ag8
ag14
ag2
ag7
ag14
ag15
ag12
ag11
ag13
ag8
ag6
ag17
ag8
ag9
a.