(lp0
S'A'
p1
aS'T'
p2
aS'Q'
p3
ag2
aS'V'
p4
ag2
aS'L'
p5
ag1
ag4
aS'P'
p6
aS'G'
p7
aS'M'
p8
ag2
aS'C'
p9
ag1
ag1
ag9
ag6
aS'I'
p10
ag2
ag4
aS'K'
p11
ag11
ag1
ag5
aS'S'
p12
ag11
ag4
aS'E'
p13
ag7
ag4
ag12
ag11
ag4
aS'D'
p14
ag4
ag7
aS'F'
p15
ag13
ag11
aS'R'
p16
ag13
ag1
ag4
ag4
ag2
ag15
ag14
ag14
ag2
ag11
ag1
ag12
ag4
ag3
ag11
ag5
ag2
ag11
ag1
ag2
ag1
ag14
ag1
ag7
aS'Y'
p17
ag6
ag12
ag12
ag4
ag11
ag3
a.