(lp0
S'V'
p1
aS'T'
p2
aS'L'
p3
aS'F'
p4
ag1
aS'A'
p5
ag3
aS'Y'
p6
aS'D'
p7
ag6
aS'E'
p8
ag5
aS'R'
p9
ag2
ag8
ag7
ag7
ag3
aS'S'
p10
ag4
aS'H'
p11
aS'K'
p12
aS'G'
p13
ag8
ag12
ag4
aS'Q'
p14
aS'I'
p15
ag3
aS'N'
p16
ag10
ag10
ag8
ag13
ag7
aS'W'
p17
ag17
ag8
ag5
ag9
ag10
ag3
ag2
ag2
ag13
ag8
ag2
ag13
ag6
ag15
aS'P'
p18
ag10
ag16
ag6
ag1
ag5
ag18
ag1
a.