(lp0
S'K'
p1
aS'E'
p2
aS'D'
p3
aS'F'
p4
aS'V'
p5
aS'G'
p6
aS'H'
p7
aS'Q'
p8
ag5
aS'L'
p9
aS'R'
p10
aS'I'
p11
aS'S'
p12
ag5
ag3
ag3
ag2
aS'A'
p13
ag8
ag5
ag8
ag1
ag5
ag1
ag2
ag9
ag2
ag3
ag9
ag2
ag7
ag9
ag8
ag9
ag3
ag4
aS'W'
p14
ag10
ag6
aS'P'
p15
ag13
ag10
ag15
ag6
ag4
ag15
ag11
ag3
ag5
ag10
ag5
ag15
ag4
ag15
ag12
ag11
ag8
ag13
ag5
ag1
ag5
ag4
ag9
ag2
ag13
ag7
ag6
ag11
ag10
aS'Y'
p16
aS'T'
p17
ag11
aS'M'
p18
ag11
ag2
ag3
ag5
ag8
ag9
ag9
ag9
ag3
ag2
ag2
ag8
ag2
ag8
ag18
ag4
ag13
ag12
ag8
ag6
ag10
ag13
ag10
ag17
ag17
ag12
ag17
ag4
aS'N'
p19
ag16
ag13
ag17
ag16
ag7
ag17
ag9
ag2
ag2
ag11
ag16
ag3
ag4
ag18
ag3
ag11
ag9
ag5
ag13
ag2
ag7
ag15
ag13
ag9
ag5
ag12
ag1
ag9
ag8
ag11
ag6
ag10
ag12
ag16
ag2
ag6
ag10
ag15
ag11
ag16
ag5
ag9
ag1
ag4
ag12
ag17
ag6
ag6
ag12
ag19
ag10
ag15
ag13
ag11
ag14
ag11
ag3
ag12
ag6
ag11
ag7
ag12
ag10
ag2
ag14
ag11
ag17
ag8
ag13
ag12
ag6
ag5
ag14
ag4
ag13
ag1
ag1
ag11
ag17
ag2
ag19
ag16
ag6
ag8
ag19
ag12
ag12
ag4
ag17
ag13
ag11
ag9
ag3
ag12
ag18
ag3
ag11
ag4
ag9
ag2
ag11
ag5
ag17
ag19
ag15
ag19
ag6
ag4
ag13
ag4
ag17
ag7
ag12
ag3
ag19
ag10
ag9
ag14
ag10
ag1
ag17
ag10
ag12
ag1
ag13
ag12
ag6
ag12
ag9
aS'C'
p20
ag5
ag6
ag12
ag3
ag12
ag19
ag10
ag19
ag14
ag3
ag13
ag6
ag4
ag6
ag6
ag13
ag6
ag13
ag12
ag12
ag12
ag15
ag20
ag13
ag2
ag17
ag16
ag7
ag6
ag1
ag16
ag15
ag19
ag12
ag2
ag5
ag2
ag5
ag1
ag12
ag11
ag17
ag3
ag4
ag5
ag1
ag19
ag19
ag6
ag19
ag11
ag1
ag13
ag4
ag11
ag12
ag11
ag7
ag12
ag16
ag12
ag8
ag9
ag9
ag9
ag16
ag15
ag16
ag6
ag16
ag1
ag17
ag8
ag12
ag15
ag13
ag3
ag1
ag12
ag2
ag9
ag19
ag8
ag11
ag13
ag1
ag12
ag13
ag5
ag13
ag13
ag9
ag1
ag12
ag9
ag16
ag6
ag17
ag12
ag16
ag1
ag16
ag6
ag12
ag11
ag11
ag17
ag5
ag11
ag16
ag8
ag13
ag12
ag6
ag6
ag5
ag11
ag3
ag14
ag17
ag16
ag19
ag8
ag6
ag11
ag1
ag16
ag12
ag4
ag12
ag4
ag2
ag9
ag10
ag3
ag17
ag6
ag10
ag10
ag6
ag4
ag9
ag9
ag15
ag13
ag12
ag8
ag11
ag11
ag15
ag17
ag13
ag8
ag2
ag17
ag14
ag9
ag13
ag9
ag9
ag17
ag11
ag18
ag2
ag7
ag17
ag9
ag19
ag19
ag12
ag5
a.