(lp0
S'G'
p1
aS'D'
p2
aS'V'
p3
aS'E'
p4
aS'K'
p5
ag1
ag5
ag5
aS'I'
p6
aS'F'
p7
ag3
aS'Q'
p8
ag5
aS'C'
p9
aS'A'
p10
ag8
ag9
aS'H'
p11
aS'T'
p12
ag3
ag4
ag5
ag1
ag1
ag5
ag11
ag5
ag12
ag1
aS'P'
p13
aS'N'
p14
aS'L'
p15
ag11
ag1
ag15
ag7
ag1
aS'R'
p16
ag5
ag12
ag1
ag8
ag10
ag13
ag1
ag7
ag12
aS'Y'
p17
ag12
ag2
ag10
ag14
ag5
ag14
ag5
ag1
ag6
ag12
aS'W'
p18
ag5
ag4
ag4
ag12
ag15
aS'M'
p19
ag4
ag17
ag15
ag4
ag14
ag13
ag5
ag5
ag17
ag6
ag13
ag1
ag12
ag5
ag19
ag6
ag7
ag10
ag1
ag6
ag5
ag5
ag5
ag12
ag4
ag16
ag4
ag2
ag15
ag6
ag10
ag17
ag15
ag5
ag5
ag10
ag12
ag14
ag4
a.