(lp0
S'M'
p1
aS'F'
p2
aS'Q'
p3
ag3
aS'E'
p4
aS'V'
p5
aS'T'
p6
aS'I'
p7
ag6
aS'A'
p8
aS'P'
p9
aS'N'
p10
aS'G'
p11
aS'L'
p12
aS'H'
p13
ag6
aS'R'
p14
ag9
ag8
ag8
ag3
ag2
ag5
aS'K'
p15
ag4
ag8
ag15
ag11
ag2
ag6
aS'S'
p16
ag4
ag7
ag6
ag5
ag6
ag16
ag10
ag11
ag15
ag16
ag8
ag16
ag8
ag15
ag16
ag12
ag2
ag15
ag12
ag3
ag6
ag12
ag11
ag12
ag6
ag3
ag11
ag6
ag5
ag5
ag6
ag7
ag16
ag8
ag4
ag11
ag4
aS'D'
p17
ag4
ag3
ag15
ag8
ag5
ag4
ag13
ag12
ag5
ag15
ag12
ag1
ag8
ag4
ag12
ag4
a.