(lp0
S'M'
p1
aS'T'
p2
aS'Y'
p3
aS'K'
p4
aS'L'
p5
aS'I'
p6
ag5
aS'N'
p7
aS'G'
p8
ag4
ag2
ag5
ag4
ag8
aS'E'
p9
ag2
ag2
ag2
ag9
aS'A'
p10
aS'V'
p11
aS'D'
p12
ag10
ag10
ag2
ag10
ag9
ag4
ag11
aS'F'
p13
ag4
aS'Q'
p14
ag3
ag10
ag7
ag12
ag7
ag8
ag11
ag12
ag8
ag9
aS'W'
p15
ag2
ag3
ag12
ag12
ag10
ag2
ag4
ag2
ag13
ag2
ag11
ag2
ag9
a.