(lp0
S'S'
p1
aS'G'
p2
aS'K'
p3
aS'M'
p4
aS'T'
p5
ag2
aS'I'
p6
aS'V'
p7
ag3
aS'W'
p8
aS'F'
p9
aS'N'
p10
aS'A'
p11
aS'D'
p12
ag3
ag2
ag9
ag2
ag9
ag6
ag5
aS'P'
p13
ag12
ag12
ag2
ag1
ag3
ag12
ag7
ag9
ag7
aS'H'
p14
ag9
ag1
ag11
ag6
aS'Q'
p15
ag10
ag12
ag2
aS'Y'
p16
ag3
ag1
aS'L'
p17
ag12
aS'E'
p18
ag2
ag15
ag3
ag7
ag1
ag9
ag5
ag6
ag18
ag1
ag2
ag11
ag3
ag2
ag13
ag11
ag11
ag2
ag10
ag7
ag5
ag1
ag17
a.