(lp0
S'V'
p1
aS'I'
p2
aS'N'
p3
aS'T'
p4
aS'F'
p5
aS'D'
p6
aS'G'
p7
ag1
aS'A'
p8
ag6
aS'Y'
p9
aS'L'
p10
aS'Q'
p11
ag4
ag9
aS'H'
p12
aS'K'
p13
ag10
aS'P'
p14
ag6
ag3
ag9
ag2
ag4
ag13
aS'S'
p15
aS'E'
p16
ag8
ag11
ag8
ag10
ag7
aS'W'
p17
ag1
ag8
ag15
ag13
ag7
ag3
ag10
ag8
ag6
ag1
ag8
ag14
ag7
ag13
ag15
ag2
ag7
ag7
ag6
ag2
ag5
ag15
ag3
aS'R'
p18
ag16
ag7
ag13
ag10
ag14
ag7
ag13
ag15
ag7
ag18
ag4
ag17
ag18
ag16
ag8
ag6
ag2
ag3
ag9
ag4
ag15
ag7
ag5
ag18
ag3
ag15
ag6
ag18
ag2
ag10
ag9
ag15
ag15
ag6
ag17
ag10
ag2
ag9
ag13
ag4
ag4
ag6
ag12
ag9
ag11
ag4
ag5
ag4
ag13
ag2
ag18
a.