(lp0
S'R'
p1
aS'P'
p2
ag1
aS'T'
p3
aS'A'
p4
aS'F'
p5
aS'S'
p6
ag6
aS'E'
p7
aS'Q'
p8
aS'L'
p9
ag4
ag1
ag9
aS'K'
p10
ag1
ag7
ag5
aS'N'
p11
ag7
ag11
ag1
aS'Y'
p12
ag9
ag3
ag7
ag1
ag1
ag1
ag8
ag8
ag9
ag6
ag6
ag7
ag9
aS'G'
p13
ag9
ag11
ag7
ag4
ag8
aS'I'
p14
ag10
ag14
aS'W'
p15
ag5
ag8
ag11
ag10
ag1
ag4
ag10
ag14
a.