(lp0
S'G'
p1
aS'K'
p2
aS'E'
p3
aS'L'
p4
aS'V'
p5
ag4
aS'A'
p6
ag4
aS'Y'
p7
aS'D'
p8
ag7
aS'Q'
p9
ag3
ag2
aS'S'
p10
aS'P'
p11
aS'R'
p12
ag3
ag5
aS'T'
p13
aS'M'
p14
ag2
ag2
ag1
ag8
aS'I'
p15
ag4
ag13
ag4
ag4
aS'N'
p16
ag10
ag13
ag16
ag2
ag8
aS'W'
p17
ag17
ag2
ag5
ag3
ag5
ag16
ag8
ag12
ag9
ag1
aS'F'
p18
ag5
ag11
ag6
ag6
ag7
ag5
ag2
ag2
ag4
ag8
a.