(lp0
S'L'
p1
aS'K'
p2
aS'P'
p3
ag2
aS'I'
p4
ag1
aS'T'
p5
aS'A'
p6
aS'S'
p7
aS'R'
p8
ag2
ag4
ag2
ag4
ag2
ag6
aS'G'
p9
aS'F'
p10
ag5
aS'H'
p11
aS'N'
p12
ag1
aS'E'
p13
aS'V'
p14
aS'D'
p15
ag10
ag4
ag9
ag6
ag3
ag15
ag3
ag5
ag6
ag5
aS'W'
p16
ag5
ag14
ag9
ag15
ag7
ag9
ag6
ag6
ag1
ag6
ag3
ag13
ag1
ag1
ag14
ag15
ag6
ag2
ag7
ag7
ag5
ag5
ag7
ag4
ag10
ag10
ag3
ag7
ag6
ag2
ag8
ag6
ag15
ag7
ag9
ag12
aS'Y'
p17
ag2
ag1
ag2
ag14
ag2
ag12
ag13
ag1
ag9
ag13
ag15
ag13
ag6
ag4
ag10
ag13
ag14
ag4
ag14
aS'Q'
p18
a.