(lp0
S'S'
p1
aS'T'
p2
aS'K'
p3
ag3
ag3
aS'P'
p4
aS'L'
p5
ag2
aS'Q'
p6
aS'E'
p7
ag6
ag5
ag7
aS'D'
p8
aS'A'
p9
aS'R'
p10
ag10
ag5
ag3
ag9
aS'I'
p11
aS'Y'
p12
ag7
ag3
ag3
ag3
aS'N'
p13
ag7
ag5
aS'G'
p14
ag5
ag1
ag6
ag7
ag1
aS'V'
p15
ag9
ag8
ag3
aS'M'
p16
ag14
ag16
ag14
ag6
ag1
ag14
ag15
ag14
ag9
ag5
aS'F'
p17
ag13
ag14
ag11
ag13
ag9
ag5
ag13
ag9
ag12
ag13
ag9
ag9
ag5
ag5
ag9
ag3
ag11
ag5
ag3
ag15
ag1
ag15
ag7
ag7
ag17
ag1
ag4
ag1
ag11
ag9
ag10
ag7
ag11
ag12
ag7
ag16
ag12
ag7
ag9
ag15
ag1
a.