(lp0
S'G'
p1
aS'S'
p2
aS'M'
p3
ag2
aS'A'
p4
aS'E'
p5
ag1
aS'Y'
p6
aS'Q'
p7
ag6
aS'R'
p8
ag4
aS'L'
p9
ag6
aS'D'
p10
ag6
aS'K'
p11
ag11
ag5
ag8
ag5
ag5
ag10
aS'I'
p12
ag10
ag9
aS'H'
p13
ag9
ag1
ag10
ag12
ag9
aS'T'
p14
aS'V'
p15
aS'N'
p16
ag11
ag1
ag2
ag9
ag15
ag4
ag9
ag1
aS'F'
p17
ag2
ag10
ag1
ag7
ag5
ag4
ag11
aS'P'
p18
ag5
ag5
ag12
ag1
aS'W'
p19
ag9
ag16
ag1
ag6
ag16
ag5
ag14
ag14
ag1
ag5
ag8
ag1
ag10
ag17
ag18
ag1
ag14
ag6
ag15
ag5
ag6
ag12
ag1
ag8
ag11
ag11
ag12
ag2
ag18
a.