(lp0
S'N'
p1
aS'L'
p2
aS'K'
p3
aS'T'
p4
aS'E'
p5
aS'W'
p6
aS'P'
p7
ag5
ag2
aS'V'
p8
aS'G'
p9
ag3
aS'S'
p10
ag8
ag5
ag5
aS'A'
p11
ag3
ag3
ag8
aS'I'
p12
ag2
aS'Q'
p13
aS'D'
p14
ag3
ag7
ag5
ag11
ag13
ag12
ag12
ag8
ag2
ag7
ag8
ag9
ag4
ag12
ag8
ag4
aS'M'
p15
ag5
aS'Y'
p16
aS'R'
p17
ag12
ag14
ag17
ag8
ag17
ag2
aS'F'
p18
ag8
ag14
ag3
ag2
ag14
ag1
ag12
ag11
ag5
ag8
ag7
ag17
ag8
ag9
a.