(lp0
S'L'
p1
aS'E'
p2
aS'T'
p3
aS'F'
p4
aS'V'
p5
aS'G'
p6
aS'D'
p7
aS'Q'
p8
ag5
ag1
ag2
aS'I'
p9
ag5
aS'P'
p10
aS'S'
p11
aS'N'
p12
ag2
ag2
ag8
ag9
aS'K'
p13
ag12
ag1
ag1
ag8
ag1
ag2
aS'A'
p14
ag8
ag2
aS'H'
p15
ag1
ag8
ag1
ag7
ag4
aS'W'
p16
ag13
ag11
ag10
ag3
ag3
ag10
ag6
ag2
ag3
ag14
ag15
ag5
aS'R'
p17
ag5
ag10
ag4
ag5
ag12
ag5
ag8
ag14
ag5
ag13
ag5
ag4
ag1
ag2
ag11
ag8
ag6
ag9
ag14
aS'Y'
p18
ag11
ag9
aS'M'
p19
ag9
ag2
ag7
ag5
ag8
ag5
ag1
ag1
ag7
ag13
ag2
ag12
ag2
ag2
ag19
ag1
ag4
ag12
ag17
ag17
ag17
ag2
ag17
ag11
ag6
ag12
ag4
ag12
ag4
ag6
ag14
ag18
ag15
ag3
ag1
ag2
ag2
ag9
ag11
ag8
ag2
ag19
ag7
ag12
ag1
ag5
ag14
ag2
ag15
ag10
ag6
ag1
ag5
ag11
ag13
ag5
ag12
ag9
ag6
ag11
ag11
ag4
ag2
ag12
ag17
ag10
ag19
ag12
ag5
ag1
ag13
ag4
ag11
ag3
ag6
ag6
ag7
ag13
ag10
ag14
ag9
ag16
ag1
ag7
ag14
ag6
ag9
ag15
ag14
ag17
ag2
ag16
ag5
ag3
ag8
ag14
ag3
ag14
ag1
ag16
ag3
ag14
ag12
ag13
ag9
ag5
ag11
ag7
ag18
ag6
ag13
ag7
ag10
ag11
ag9
ag3
ag11
ag9
ag1
ag7
ag14
ag1
ag7
ag9
ag4
ag1
ag1
ag10
ag5
ag3
ag12
ag10
ag7
ag6
ag18
ag5
ag4
ag11
ag8
ag3
ag13
ag12
ag17
ag19
ag16
ag17
ag13
ag3
ag17
ag11
ag13
ag5
ag11
ag6
ag11
ag1
aS'C'
p20
ag5
ag6
ag5
ag7
ag10
ag12
ag17
ag12
ag16
ag7
ag14
ag6
ag4
ag6
ag6
ag10
ag6
ag14
ag11
ag11
ag12
ag10
ag20
ag11
ag7
ag11
ag18
ag15
ag6
ag10
ag11
ag14
ag12
ag11
ag2
ag5
ag2
ag5
ag13
ag11
ag9
ag5
ag7
ag4
ag9
ag13
ag11
ag15
ag6
ag13
ag5
ag13
ag14
ag4
ag9
ag9
ag1
ag15
ag11
ag18
ag11
ag8
ag1
ag1
ag19
ag4
ag10
ag18
ag6
ag18
ag13
ag20
ag3
ag13
ag1
ag7
ag7
ag4
ag7
ag2
ag1
ag11
ag2
ag5
ag14
ag8
ag13
ag14
ag14
ag8
ag11
ag1
ag17
ag11
ag1
ag15
ag6
ag3
ag13
ag18
ag13
ag5
ag6
ag10
ag9
ag20
ag11
ag5
ag9
ag18
ag8
ag14
ag11
ag6
ag6
ag11
ag9
ag7
ag16
ag11
ag18
ag7
ag18
ag6
ag9
ag13
ag18
ag11
ag4
ag14
ag4
ag2
ag1
ag17
ag7
ag3
ag6
ag17
ag18
ag6
ag4
ag1
ag1
ag10
ag14
ag17
ag8
ag9
ag1
ag10
ag3
ag14
ag2
ag2
ag3
ag16
ag1
ag6
ag1
ag13
ag14
ag9
ag19
ag2
ag15
ag5
ag17
ag7
ag15
ag10
ag18
a.