(lp0
S'P'
p1
aS'Q'
p2
aS'I'
p3
aS'T'
p4
aS'L'
p5
aS'W'
p6
ag2
aS'R'
p7
ag1
ag5
aS'V'
p8
ag4
ag3
aS'K'
p9
ag3
aS'G'
p10
ag10
ag2
ag5
ag9
aS'E'
p11
aS'A'
p12
ag5
ag5
aS'D'
p13
ag4
ag10
ag12
ag13
ag13
ag4
ag8
ag5
ag11
ag11
aS'M'
p14
aS'N'
p15
ag5
ag1
ag10
ag7
ag6
ag9
ag1
ag9
ag14
ag3
ag10
ag10
ag3
ag10
ag10
aS'F'
p16
ag3
ag9
ag8
ag7
ag2
aS'Y'
p17
ag13
ag2
ag3
ag5
ag3
ag11
ag3
aS'C'
p18
ag10
aS'H'
p19
ag9
ag12
ag3
ag10
ag4
ag8
ag5
ag8
ag10
ag1
ag4
ag1
ag8
ag15
ag3
ag3
ag10
ag7
ag15
ag5
ag5
ag4
ag2
ag3
ag10
ag18
ag4
ag5
ag15
ag16
a.