(lp0
S'M'
p1
aS'L'
p2
aS'E'
p3
aS'G'
p4
aS'K'
p5
aS'V'
p6
ag5
aS'W'
p7
aS'F'
p8
aS'N'
p9
aS'S'
p10
ag3
ag5
ag4
ag8
ag4
ag8
aS'I'
p11
ag3
ag6
ag3
ag4
aS'Q'
p12
aS'D'
p13
ag13
ag6
ag8
ag6
aS'H'
p14
ag8
ag10
aS'A'
p15
ag11
ag12
ag4
ag3
ag4
ag8
ag5
aS'T'
p16
ag2
ag3
ag3
ag4
ag12
ag15
ag6
ag10
ag8
ag3
ag11
ag6
ag3
ag4
ag9
aS'R'
p17
ag4
aS'P'
p18
ag12
ag15
ag15
ag9
ag6
ag16
ag5
ag3
ag15
a.