(lp0
S'M'
p1
aS'L'
p2
aS'S'
p3
aS'D'
p4
aS'E'
p5
ag4
aS'F'
p6
aS'K'
p7
aS'A'
p8
aS'V'
p9
ag6
aS'G'
p10
ag1
aS'T'
p11
aS'R'
p12
ag3
ag8
ag6
ag8
aS'N'
p13
ag2
aS'P'
p14
ag2
aS'W'
p15
ag7
aS'Q'
p16
ag16
ag13
ag2
ag7
ag7
ag5
ag7
ag10
ag2
ag6
a.